; ModuleID = '17/677.c'
source_filename = "17/677.c"
target datalayout = "e-m:e-p270:32:32-p271:32:32-p272:64:64-i64:64-f80:128-n8:16:32:64-S128"
target triple = "x86_64-pc-linux-gnu"

@.str = private unnamed_addr constant [4 x i8] c"%d\0A\00", align 1
@.str.1 = private unnamed_addr constant [3 x i8] c"%c\00", align 1
@.str.2 = private unnamed_addr constant [2 x i8] c"\0A\00", align 1

; Function Attrs: noinline nounwind uwtable
define dso_local i32 @main() #0 {
  %1 = alloca i32, align 4
  %2 = alloca [101 x i8], align 16
  %3 = alloca [101 x i8], align 16
  %4 = alloca i32, align 4
  %5 = alloca i32, align 4
  %6 = alloca [101 x i32], align 16
  %7 = alloca i32, align 4
  %8 = alloca i32, align 4
  %9 = alloca i32, align 4
  store i32 0, i32* %1, align 4
  %10 = call i32 (i8*, ...) @__isoc99_scanf(i8* getelementptr inbounds ([4 x i8], [4 x i8]* @.str, i64 0, i64 0), i32* %4)
  br label %11

11:                                               ; preds = %161, %0
  %12 = load i32, i32* %4, align 4
  %13 = icmp sgt i32 %12, 0
  br i1 %13, label %14, label %165

14:                                               ; preds = %11
  %15 = getelementptr inbounds [101 x i8], [101 x i8]* %3, i64 0, i64 0
  %16 = call i32 (i8*, ...) bitcast (i32 (...)* @gets to i32 (i8*, ...)*)(i8* %15)
  %17 = getelementptr inbounds [101 x i8], [101 x i8]* %3, i64 0, i64 0
  %18 = call i64 @strlen(i8* %17) #4
  %19 = trunc i64 %18 to i32
  store i32 %19, i32* %5, align 4
  %20 = bitcast [101 x i32]* %6 to i8*
  call void @llvm.memset.p0i8.i64(i8* align 16 %20, i8 0, i64 404, i1 false)
  store i32 -1, i32* %7, align 4
  store i32 0, i32* %8, align 4
  br label %21

21:                                               ; preds = %95, %14
  %22 = load i32, i32* %8, align 4
  %23 = load i32, i32* %5, align 4
  %24 = icmp slt i32 %22, %23
  br i1 %24, label %25, label %98

25:                                               ; preds = %21
  br label %26

26:                                               ; preds = %52, %25
  %27 = load i32, i32* %8, align 4
  %28 = sext i32 %27 to i64
  %29 = getelementptr inbounds [101 x i8], [101 x i8]* %3, i64 0, i64 %28
  %30 = load i8, i8* %29, align 1
  %31 = sext i8 %30 to i32
  %32 = icmp ne i32 %31, 40
  br i1 %32, label %33, label %40

33:                                               ; preds = %26
  %34 = load i32, i32* %8, align 4
  %35 = sext i32 %34 to i64
  %36 = getelementptr inbounds [101 x i8], [101 x i8]* %3, i64 0, i64 %35
  %37 = load i8, i8* %36, align 1
  %38 = sext i8 %37 to i32
  %39 = icmp ne i32 %38, 41
  br label %40

40:                                               ; preds = %33, %26
  %41 = phi i1 [ false, %26 ], [ %39, %33 ]
  br i1 %41, label %42, label %53

42:                                               ; preds = %40
  %43 = load i32, i32* %8, align 4
  %44 = sext i32 %43 to i64
  %45 = getelementptr inbounds [101 x i8], [101 x i8]* %2, i64 0, i64 %44
  store i8 32, i8* %45, align 1
  %46 = load i32, i32* %8, align 4
  %47 = add nsw i32 %46, 1
  store i32 %47, i32* %8, align 4
  %48 = load i32, i32* %8, align 4
  %49 = load i32, i32* %5, align 4
  %50 = icmp sge i32 %48, %49
  br i1 %50, label %51, label %52

51:                                               ; preds = %42
  br label %53

52:                                               ; preds = %42
  br label %26

53:                                               ; preds = %51, %40
  %54 = load i32, i32* %8, align 4
  %55 = sext i32 %54 to i64
  %56 = getelementptr inbounds [101 x i8], [101 x i8]* %3, i64 0, i64 %55
  %57 = load i8, i8* %56, align 1
  %58 = sext i8 %57 to i32
  %59 = icmp eq i32 %58, 40
  br i1 %59, label %60, label %68

60:                                               ; preds = %53
  %61 = load i32, i32* %7, align 4
  %62 = load i32, i32* %8, align 4
  %63 = add nsw i32 %62, 1
  %64 = sext i32 %63 to i64
  %65 = getelementptr inbounds [101 x i32], [101 x i32]* %6, i64 0, i64 %64
  store i32 %61, i32* %65, align 4
  %66 = load i32, i32* %8, align 4
  %67 = add nsw i32 %66, 1
  store i32 %67, i32* %7, align 4
  br label %68

68:                                               ; preds = %60, %53
  %69 = load i32, i32* %8, align 4
  %70 = sext i32 %69 to i64
  %71 = getelementptr inbounds [101 x i8], [101 x i8]* %3, i64 0, i64 %70
  %72 = load i8, i8* %71, align 1
  %73 = sext i8 %72 to i32
  %74 = icmp eq i32 %73, 41
  br i1 %74, label %75, label %95

75:                                               ; preds = %68
  %76 = load i32, i32* %7, align 4
  %77 = icmp slt i32 %76, 0
  br i1 %77, label %78, label %82

78:                                               ; preds = %75
  %79 = load i32, i32* %8, align 4
  %80 = sext i32 %79 to i64
  %81 = getelementptr inbounds [101 x i8], [101 x i8]* %2, i64 0, i64 %80
  store i8 63, i8* %81, align 1
  br label %94

82:                                               ; preds = %75
  %83 = load i32, i32* %7, align 4
  %84 = sext i32 %83 to i64
  %85 = getelementptr inbounds [101 x i32], [101 x i32]* %6, i64 0, i64 %84
  %86 = load i32, i32* %85, align 4
  store i32 %86, i32* %9, align 4
  %87 = load i32, i32* %7, align 4
  %88 = sext i32 %87 to i64
  %89 = getelementptr inbounds [101 x i32], [101 x i32]* %6, i64 0, i64 %88
  store i32 0, i32* %89, align 4
  %90 = load i32, i32* %9, align 4
  store i32 %90, i32* %7, align 4
  %91 = load i32, i32* %8, align 4
  %92 = sext i32 %91 to i64
  %93 = getelementptr inbounds [101 x i8], [101 x i8]* %2, i64 0, i64 %92
  store i8 32, i8* %93, align 1
  br label %94

94:                                               ; preds = %82, %78
  br label %95

95:                                               ; preds = %94, %68
  %96 = load i32, i32* %8, align 4
  %97 = add nsw i32 %96, 1
  store i32 %97, i32* %8, align 4
  br label %21

98:                                               ; preds = %21
  store i32 0, i32* %8, align 4
  br label %99

99:                                               ; preds = %127, %98
  %100 = load i32, i32* %8, align 4
  %101 = load i32, i32* %5, align 4
  %102 = icmp slt i32 %100, %101
  br i1 %102, label %103, label %130

103:                                              ; preds = %99
  %104 = load i32, i32* %8, align 4
  %105 = sext i32 %104 to i64
  %106 = getelementptr inbounds [101 x i8], [101 x i8]* %3, i64 0, i64 %105
  %107 = load i8, i8* %106, align 1
  %108 = sext i8 %107 to i32
  %109 = icmp eq i32 %108, 40
  br i1 %109, label %110, label %126

110:                                              ; preds = %103
  %111 = load i32, i32* %8, align 4
  %112 = add nsw i32 %111, 1
  %113 = sext i32 %112 to i64
  %114 = getelementptr inbounds [101 x i32], [101 x i32]* %6, i64 0, i64 %113
  %115 = load i32, i32* %114, align 4
  %116 = icmp eq i32 %115, 0
  br i1 %116, label %117, label %121

117:                                              ; preds = %110
  %118 = load i32, i32* %8, align 4
  %119 = sext i32 %118 to i64
  %120 = getelementptr inbounds [101 x i8], [101 x i8]* %2, i64 0, i64 %119
  store i8 32, i8* %120, align 1
  br label %125

121:                                              ; preds = %110
  %122 = load i32, i32* %8, align 4
  %123 = sext i32 %122 to i64
  %124 = getelementptr inbounds [101 x i8], [101 x i8]* %2, i64 0, i64 %123
  store i8 36, i8* %124, align 1
  br label %125

125:                                              ; preds = %121, %117
  br label %126

126:                                              ; preds = %125, %103
  br label %127

127:                                              ; preds = %126
  %128 = load i32, i32* %8, align 4
  %129 = add nsw i32 %128, 1
  store i32 %129, i32* %8, align 4
  br label %99

130:                                              ; preds = %99
  store i32 0, i32* %8, align 4
  br label %131

131:                                              ; preds = %142, %130
  %132 = load i32, i32* %8, align 4
  %133 = load i32, i32* %5, align 4
  %134 = icmp slt i32 %132, %133
  br i1 %134, label %135, label %145

135:                                              ; preds = %131
  %136 = load i32, i32* %8, align 4
  %137 = sext i32 %136 to i64
  %138 = getelementptr inbounds [101 x i8], [101 x i8]* %3, i64 0, i64 %137
  %139 = load i8, i8* %138, align 1
  %140 = sext i8 %139 to i32
  %141 = call i32 (i8*, ...) @printf(i8* getelementptr inbounds ([3 x i8], [3 x i8]* @.str.1, i64 0, i64 0), i32 %140)
  br label %142

142:                                              ; preds = %135
  %143 = load i32, i32* %8, align 4
  %144 = add nsw i32 %143, 1
  store i32 %144, i32* %8, align 4
  br label %131

145:                                              ; preds = %131
  %146 = call i32 (i8*, ...) @printf(i8* getelementptr inbounds ([2 x i8], [2 x i8]* @.str.2, i64 0, i64 0))
  store i32 0, i32* %8, align 4
  br label %147

147:                                              ; preds = %158, %145
  %148 = load i32, i32* %8, align 4
  %149 = load i32, i32* %5, align 4
  %150 = icmp slt i32 %148, %149
  br i1 %150, label %151, label %161

151:                                              ; preds = %147
  %152 = load i32, i32* %8, align 4
  %153 = sext i32 %152 to i64
  %154 = getelementptr inbounds [101 x i8], [101 x i8]* %2, i64 0, i64 %153
  %155 = load i8, i8* %154, align 1
  %156 = sext i8 %155 to i32
  %157 = call i32 (i8*, ...) @printf(i8* getelementptr inbounds ([3 x i8], [3 x i8]* @.str.1, i64 0, i64 0), i32 %156)
  br label %158

158:                                              ; preds = %151
  %159 = load i32, i32* %8, align 4
  %160 = add nsw i32 %159, 1
  store i32 %160, i32* %8, align 4
  br label %147

161:                                              ; preds = %147
  %162 = call i32 (i8*, ...) @printf(i8* getelementptr inbounds ([2 x i8], [2 x i8]* @.str.2, i64 0, i64 0))
  %163 = load i32, i32* %4, align 4
  %164 = add nsw i32 %163, -1
  store i32 %164, i32* %4, align 4
  br label %11

165:                                              ; preds = %11
  ret i32 0
}

declare dso_local i32 @__isoc99_scanf(i8*, ...) #1

declare dso_local i32 @gets(...) #1

; Function Attrs: nounwind readonly
declare dso_local i64 @strlen(i8*) #2

; Function Attrs: argmemonly nounwind willreturn
declare void @llvm.memset.p0i8.i64(i8* nocapture writeonly, i8, i64, i1 immarg) #3

declare dso_local i32 @printf(i8*, ...) #1


!llvm.module.flags = !{!0}
!llvm.ident = !{!1}

!0 = !{i32 1, !"wchar_size", i32 4}
!1 = !{!"clang version 10.0.0-4ubuntu1 "}
